
modified.out:     формат файла elf64-x86-64


Дизассемблирование раздела .text:

0000000000401000 <_start>:
  401000:	e8 c5 00 00 00       	call   4010ca <_start+0xca>
  401005:	48 b8 3c 00 00 00 00 	movabs rax,0x3c
  40100c:	00 00 00 
  40100f:	0f 05                	syscall 
  401011:	40 55                	rex push rbp
  401013:	48 8b ec             	mov    rbp,rsp
  401016:	48 81 ec 00 00 00 00 	sub    rsp,0x0
  40101d:	48 8b 45 10          	mov    rax,QWORD PTR [rbp+0x10]
  401021:	40 50                	rex push rax
  401023:	48 8b 45 18          	mov    rax,QWORD PTR [rbp+0x18]
  401027:	40 5b                	rex pop rbx
  401029:	48 39 c3             	cmp    rbx,rax
  40102c:	0f 8f 08 00 00 00    	jg     40103a <_start+0x3a>
  401032:	48 31 c0             	xor    rax,rax
  401035:	e9 0a 00 00 00       	jmp    401044 <_start+0x44>
  40103a:	48 b8 01 00 00 00 00 	movabs rax,0x1
  401041:	00 00 00 
  401044:	48 31 db             	xor    rbx,rbx
  401047:	48 39 d8             	cmp    rax,rbx
  40104a:	0f 84 0c 00 00 00    	je     40105c <_start+0x5c>
  401050:	48 8b 45 10          	mov    rax,QWORD PTR [rbp+0x10]
  401054:	c9                   	leave  
  401055:	c3                   	ret    
  401056:	c3                   	ret    
  401057:	e9 54 00 00 00       	jmp    4010b0 <_start+0xb0>
  40105c:	48 8b 45 10          	mov    rax,QWORD PTR [rbp+0x10]
  401060:	40 50                	rex push rax
  401062:	48 8b 45 18          	mov    rax,QWORD PTR [rbp+0x18]
  401066:	40 5b                	rex pop rbx
  401068:	48 39 c3             	cmp    rbx,rax
  40106b:	0f 8c 08 00 00 00    	jl     401079 <_start+0x79>
  401071:	48 31 c0             	xor    rax,rax
  401074:	e9 0a 00 00 00       	jmp    401083 <_start+0x83>
  401079:	48 b8 01 00 00 00 00 	movabs rax,0x1
  401080:	00 00 00 
  401083:	48 31 db             	xor    rbx,rbx
  401086:	48 39 d8             	cmp    rax,rbx
  401089:	0f 84 21 00 00 00    	je     4010b0 <_start+0xb0>
  40108f:	48 8b 45 18          	mov    rax,QWORD PTR [rbp+0x18]
  401093:	40 50                	rex push rax
  401095:	48 b8 01 00 00 00 00 	movabs rax,0x1
  40109c:	00 00 00 
  40109f:	40 5b                	rex pop rbx
  4010a1:	48 87 d8             	xchg   rax,rbx
  4010a4:	48 29 d8             	sub    rax,rbx
  4010a7:	48 89 45 18          	mov    QWORD PTR [rbp+0x18],rax
  4010ab:	e9 ac ff ff ff       	jmp    40105c <_start+0x5c>
  4010b0:	48 8b 45 18          	mov    rax,QWORD PTR [rbp+0x18]
  4010b4:	40 50                	rex push rax
  4010b6:	48 b8 01 00 00 00 00 	movabs rax,0x1
  4010bd:	00 00 00 
  4010c0:	40 5b                	rex pop rbx
  4010c2:	48 01 d8             	add    rax,rbx
  4010c5:	c9                   	leave  
  4010c6:	c3                   	ret    
  4010c7:	c3                   	ret    
  4010c8:	c9                   	leave  
  4010c9:	c3                   	ret    
  4010ca:	40 55                	rex push rbp
  4010cc:	48 8b ec             	mov    rbp,rsp
  4010cf:	48 81 ec 20 00 00 00 	sub    rsp,0x20
  4010d6:	48 b8 06 00 00 00 00 	movabs rax,0x6
  4010dd:	00 00 00 
  4010e0:	48 89 45 f8          	mov    QWORD PTR [rbp-0x8],rax
  4010e4:	48 b8 0a 00 00 00 00 	movabs rax,0xa
  4010eb:	00 00 00 
  4010ee:	48 89 45 f0          	mov    QWORD PTR [rbp-0x10],rax
  4010f2:	48 b8 1e 00 00 00 00 	movabs rax,0x1e
  4010f9:	00 00 00 
  4010fc:	48 89 45 e8          	mov    QWORD PTR [rbp-0x18],rax
  401100:	48 8b 45 e8          	mov    rax,QWORD PTR [rbp-0x18]
  401104:	40 50                	rex push rax
  401106:	48 8b 45 f0          	mov    rax,QWORD PTR [rbp-0x10]
  40110a:	40 50                	rex push rax
  40110c:	48 8b 45 f8          	mov    rax,QWORD PTR [rbp-0x8]
  401110:	40 50                	rex push rax
  401112:	e8 fa fe ff ff       	call   401011 <_start+0x11>
  401117:	48 81 c4 18 00 00 00 	add    rsp,0x18
  40111e:	48 89 45 e0          	mov    QWORD PTR [rbp-0x20],rax
  401122:	c9                   	leave  
  401123:	c3                   	ret    
  401124:	90                   	nop
  401125:	90                   	nop
  401126:	90                   	nop
  401127:	90                   	nop
  401128:	90                   	nop
  401129:	90                   	nop
  40112a:	90                   	nop
  40112b:	90                   	nop
  40112c:	90                   	nop
  40112d:	90                   	nop
  40112e:	90                   	nop
  40112f:	90                   	nop
  401130:	90                   	nop
  401131:	90                   	nop
  401132:	90                   	nop
  401133:	90                   	nop
  401134:	90                   	nop
  401135:	90                   	nop
  401136:	90                   	nop
  401137:	90                   	nop
  401138:	90                   	nop
  401139:	90                   	nop
  40113a:	90                   	nop
  40113b:	90                   	nop
  40113c:	90                   	nop
  40113d:	90                   	nop
  40113e:	90                   	nop
  40113f:	90                   	nop
  401140:	90                   	nop
  401141:	90                   	nop
  401142:	90                   	nop
  401143:	90                   	nop
  401144:	90                   	nop
  401145:	90                   	nop
  401146:	90                   	nop
  401147:	90                   	nop
  401148:	90                   	nop
  401149:	90                   	nop
  40114a:	90                   	nop
  40114b:	90                   	nop
  40114c:	90                   	nop
  40114d:	90                   	nop
  40114e:	90                   	nop
  40114f:	90                   	nop
  401150:	90                   	nop
  401151:	90                   	nop
  401152:	90                   	nop
  401153:	90                   	nop
  401154:	90                   	nop
  401155:	90                   	nop
  401156:	90                   	nop
  401157:	90                   	nop
  401158:	90                   	nop
  401159:	90                   	nop
  40115a:	90                   	nop
  40115b:	90                   	nop
  40115c:	90                   	nop
  40115d:	90                   	nop
  40115e:	90                   	nop
  40115f:	90                   	nop
  401160:	90                   	nop
  401161:	90                   	nop
  401162:	90                   	nop
  401163:	90                   	nop
  401164:	90                   	nop
  401165:	90                   	nop
  401166:	90                   	nop
  401167:	90                   	nop
  401168:	90                   	nop
  401169:	90                   	nop
  40116a:	90                   	nop
  40116b:	90                   	nop
  40116c:	90                   	nop
  40116d:	90                   	nop
  40116e:	90                   	nop
  40116f:	90                   	nop
  401170:	90                   	nop
  401171:	90                   	nop
  401172:	90                   	nop
  401173:	90                   	nop
  401174:	90                   	nop
  401175:	90                   	nop
  401176:	90                   	nop
  401177:	90                   	nop
  401178:	90                   	nop
  401179:	90                   	nop
  40117a:	90                   	nop
  40117b:	90                   	nop
  40117c:	90                   	nop
  40117d:	90                   	nop
  40117e:	90                   	nop
  40117f:	90                   	nop
  401180:	90                   	nop
  401181:	90                   	nop
  401182:	90                   	nop
  401183:	90                   	nop
  401184:	90                   	nop
  401185:	90                   	nop
  401186:	90                   	nop
  401187:	90                   	nop
  401188:	90                   	nop
  401189:	90                   	nop
  40118a:	90                   	nop
  40118b:	90                   	nop
  40118c:	90                   	nop
  40118d:	90                   	nop
  40118e:	90                   	nop
  40118f:	90                   	nop
  401190:	90                   	nop
  401191:	90                   	nop
  401192:	90                   	nop
  401193:	90                   	nop
  401194:	90                   	nop
  401195:	90                   	nop
  401196:	90                   	nop
  401197:	90                   	nop
  401198:	90                   	nop
  401199:	90                   	nop
  40119a:	90                   	nop
  40119b:	90                   	nop
  40119c:	90                   	nop
  40119d:	90                   	nop
  40119e:	90                   	nop
  40119f:	90                   	nop
  4011a0:	90                   	nop
  4011a1:	90                   	nop
  4011a2:	90                   	nop
  4011a3:	90                   	nop
  4011a4:	90                   	nop
  4011a5:	90                   	nop
  4011a6:	90                   	nop
  4011a7:	90                   	nop
  4011a8:	90                   	nop
  4011a9:	90                   	nop
  4011aa:	90                   	nop
  4011ab:	90                   	nop
  4011ac:	90                   	nop
  4011ad:	90                   	nop
  4011ae:	90                   	nop
  4011af:	90                   	nop
  4011b0:	90                   	nop
  4011b1:	90                   	nop
  4011b2:	90                   	nop
  4011b3:	90                   	nop
  4011b4:	90                   	nop
  4011b5:	90                   	nop
  4011b6:	90                   	nop
  4011b7:	90                   	nop
  4011b8:	90                   	nop
  4011b9:	90                   	nop
  4011ba:	90                   	nop
  4011bb:	90                   	nop
  4011bc:	90                   	nop
  4011bd:	90                   	nop
  4011be:	90                   	nop
  4011bf:	90                   	nop
  4011c0:	90                   	nop
  4011c1:	90                   	nop
  4011c2:	90                   	nop
  4011c3:	90                   	nop
  4011c4:	90                   	nop
  4011c5:	90                   	nop
  4011c6:	90                   	nop
  4011c7:	90                   	nop
  4011c8:	90                   	nop
  4011c9:	90                   	nop
  4011ca:	90                   	nop
  4011cb:	90                   	nop
  4011cc:	90                   	nop
  4011cd:	90                   	nop
  4011ce:	90                   	nop
  4011cf:	90                   	nop
  4011d0:	90                   	nop
  4011d1:	90                   	nop
  4011d2:	90                   	nop
  4011d3:	90                   	nop
  4011d4:	90                   	nop
  4011d5:	90                   	nop
  4011d6:	90                   	nop
  4011d7:	90                   	nop
  4011d8:	90                   	nop
  4011d9:	90                   	nop
  4011da:	90                   	nop
  4011db:	90                   	nop
  4011dc:	90                   	nop
  4011dd:	90                   	nop
  4011de:	90                   	nop
  4011df:	90                   	nop
  4011e0:	90                   	nop
  4011e1:	90                   	nop
  4011e2:	90                   	nop
  4011e3:	90                   	nop
  4011e4:	90                   	nop
  4011e5:	90                   	nop
  4011e6:	90                   	nop
  4011e7:	90                   	nop
  4011e8:	90                   	nop
  4011e9:	90                   	nop
  4011ea:	90                   	nop
  4011eb:	90                   	nop
  4011ec:	90                   	nop
  4011ed:	90                   	nop
  4011ee:	90                   	nop
  4011ef:	90                   	nop
  4011f0:	90                   	nop
  4011f1:	90                   	nop
  4011f2:	90                   	nop
  4011f3:	90                   	nop
  4011f4:	90                   	nop
  4011f5:	90                   	nop
  4011f6:	90                   	nop
  4011f7:	90                   	nop
  4011f8:	90                   	nop
  4011f9:	90                   	nop
  4011fa:	90                   	nop
  4011fb:	90                   	nop
  4011fc:	90                   	nop
  4011fd:	90                   	nop
  4011fe:	90                   	nop
  4011ff:	90                   	nop
  401200:	90                   	nop
  401201:	90                   	nop
  401202:	90                   	nop
  401203:	90                   	nop
  401204:	90                   	nop
  401205:	90                   	nop
  401206:	90                   	nop
  401207:	90                   	nop
  401208:	90                   	nop
  401209:	90                   	nop
  40120a:	90                   	nop
  40120b:	90                   	nop
  40120c:	90                   	nop
  40120d:	90                   	nop
  40120e:	90                   	nop
  40120f:	90                   	nop
  401210:	90                   	nop
  401211:	90                   	nop
  401212:	90                   	nop
  401213:	90                   	nop
  401214:	90                   	nop
  401215:	90                   	nop
  401216:	90                   	nop
  401217:	90                   	nop
  401218:	90                   	nop
  401219:	90                   	nop
  40121a:	90                   	nop
  40121b:	90                   	nop
  40121c:	90                   	nop
  40121d:	90                   	nop
  40121e:	90                   	nop
  40121f:	90                   	nop
  401220:	90                   	nop
  401221:	90                   	nop
  401222:	90                   	nop
  401223:	90                   	nop
  401224:	90                   	nop
  401225:	90                   	nop
  401226:	90                   	nop
  401227:	90                   	nop
  401228:	90                   	nop
  401229:	90                   	nop
  40122a:	90                   	nop
  40122b:	90                   	nop
  40122c:	90                   	nop
  40122d:	90                   	nop
  40122e:	90                   	nop
  40122f:	90                   	nop
  401230:	90                   	nop
  401231:	90                   	nop
  401232:	90                   	nop
  401233:	90                   	nop
  401234:	90                   	nop
  401235:	90                   	nop
  401236:	90                   	nop
  401237:	90                   	nop
  401238:	90                   	nop
  401239:	90                   	nop
  40123a:	90                   	nop
  40123b:	90                   	nop
  40123c:	90                   	nop
  40123d:	90                   	nop
  40123e:	90                   	nop
  40123f:	90                   	nop
  401240:	90                   	nop
  401241:	90                   	nop
  401242:	90                   	nop
  401243:	90                   	nop
  401244:	90                   	nop
  401245:	90                   	nop
  401246:	90                   	nop
  401247:	90                   	nop
  401248:	90                   	nop
  401249:	90                   	nop
  40124a:	90                   	nop
  40124b:	90                   	nop
  40124c:	90                   	nop
  40124d:	90                   	nop
  40124e:	90                   	nop
  40124f:	90                   	nop
  401250:	90                   	nop
  401251:	90                   	nop
  401252:	90                   	nop
  401253:	90                   	nop
  401254:	90                   	nop
  401255:	90                   	nop
  401256:	90                   	nop
  401257:	90                   	nop
  401258:	90                   	nop
  401259:	90                   	nop
  40125a:	90                   	nop
  40125b:	90                   	nop
  40125c:	90                   	nop
  40125d:	90                   	nop
  40125e:	90                   	nop
  40125f:	90                   	nop
  401260:	90                   	nop
  401261:	90                   	nop
  401262:	90                   	nop
  401263:	90                   	nop
  401264:	90                   	nop
  401265:	90                   	nop
  401266:	90                   	nop
  401267:	90                   	nop
  401268:	90                   	nop
  401269:	90                   	nop
  40126a:	90                   	nop
  40126b:	90                   	nop
  40126c:	90                   	nop
  40126d:	90                   	nop
  40126e:	90                   	nop
  40126f:	90                   	nop
  401270:	90                   	nop
  401271:	90                   	nop
  401272:	90                   	nop
  401273:	90                   	nop
  401274:	90                   	nop
  401275:	90                   	nop
  401276:	90                   	nop
  401277:	90                   	nop
  401278:	90                   	nop
  401279:	90                   	nop
  40127a:	90                   	nop
  40127b:	90                   	nop
  40127c:	90                   	nop
  40127d:	90                   	nop
  40127e:	90                   	nop
  40127f:	90                   	nop
  401280:	90                   	nop
  401281:	90                   	nop
  401282:	90                   	nop
  401283:	90                   	nop
  401284:	90                   	nop
  401285:	90                   	nop
  401286:	90                   	nop
  401287:	90                   	nop
  401288:	90                   	nop
  401289:	90                   	nop
  40128a:	90                   	nop
  40128b:	90                   	nop
  40128c:	90                   	nop
  40128d:	90                   	nop
  40128e:	90                   	nop
  40128f:	90                   	nop
  401290:	90                   	nop
  401291:	90                   	nop
  401292:	90                   	nop
  401293:	90                   	nop
  401294:	90                   	nop
  401295:	90                   	nop
  401296:	90                   	nop
  401297:	90                   	nop
  401298:	90                   	nop
  401299:	90                   	nop
  40129a:	90                   	nop
  40129b:	90                   	nop
  40129c:	90                   	nop
  40129d:	90                   	nop
  40129e:	90                   	nop
  40129f:	90                   	nop
  4012a0:	90                   	nop
  4012a1:	90                   	nop
  4012a2:	90                   	nop
  4012a3:	90                   	nop
  4012a4:	90                   	nop
  4012a5:	90                   	nop
  4012a6:	90                   	nop
  4012a7:	90                   	nop
  4012a8:	90                   	nop
  4012a9:	90                   	nop
  4012aa:	90                   	nop
  4012ab:	90                   	nop
  4012ac:	90                   	nop
  4012ad:	90                   	nop
  4012ae:	90                   	nop
  4012af:	90                   	nop
  4012b0:	90                   	nop
  4012b1:	90                   	nop
  4012b2:	90                   	nop
  4012b3:	90                   	nop
  4012b4:	90                   	nop
  4012b5:	90                   	nop
  4012b6:	90                   	nop
  4012b7:	90                   	nop
  4012b8:	90                   	nop
  4012b9:	90                   	nop
  4012ba:	90                   	nop
  4012bb:	90                   	nop
  4012bc:	90                   	nop
  4012bd:	90                   	nop
  4012be:	90                   	nop
  4012bf:	90                   	nop
  4012c0:	90                   	nop
  4012c1:	90                   	nop
  4012c2:	90                   	nop
  4012c3:	90                   	nop
  4012c4:	90                   	nop
  4012c5:	90                   	nop
  4012c6:	90                   	nop
  4012c7:	90                   	nop
  4012c8:	90                   	nop
  4012c9:	90                   	nop
  4012ca:	90                   	nop
  4012cb:	90                   	nop
  4012cc:	90                   	nop
  4012cd:	90                   	nop
  4012ce:	90                   	nop
  4012cf:	90                   	nop
  4012d0:	90                   	nop
  4012d1:	90                   	nop
  4012d2:	90                   	nop
  4012d3:	90                   	nop
  4012d4:	90                   	nop
  4012d5:	90                   	nop
  4012d6:	90                   	nop
  4012d7:	90                   	nop
  4012d8:	90                   	nop
  4012d9:	90                   	nop
  4012da:	90                   	nop
  4012db:	90                   	nop
  4012dc:	90                   	nop
  4012dd:	90                   	nop
  4012de:	90                   	nop
  4012df:	90                   	nop
  4012e0:	90                   	nop
  4012e1:	90                   	nop
  4012e2:	90                   	nop
  4012e3:	90                   	nop
  4012e4:	90                   	nop
  4012e5:	90                   	nop
  4012e6:	90                   	nop
  4012e7:	90                   	nop
  4012e8:	90                   	nop
  4012e9:	90                   	nop
  4012ea:	90                   	nop
  4012eb:	90                   	nop
  4012ec:	90                   	nop
  4012ed:	90                   	nop
  4012ee:	90                   	nop
  4012ef:	90                   	nop
  4012f0:	90                   	nop
  4012f1:	90                   	nop
  4012f2:	90                   	nop
  4012f3:	90                   	nop
  4012f4:	90                   	nop
  4012f5:	90                   	nop
  4012f6:	90                   	nop
  4012f7:	90                   	nop
  4012f8:	90                   	nop
  4012f9:	90                   	nop
  4012fa:	90                   	nop
  4012fb:	90                   	nop
  4012fc:	90                   	nop
  4012fd:	90                   	nop
  4012fe:	90                   	nop
  4012ff:	90                   	nop
  401300:	90                   	nop
  401301:	90                   	nop
  401302:	90                   	nop
  401303:	90                   	nop
  401304:	90                   	nop
  401305:	90                   	nop
  401306:	90                   	nop
  401307:	90                   	nop
  401308:	90                   	nop
  401309:	90                   	nop
  40130a:	90                   	nop
  40130b:	90                   	nop
  40130c:	90                   	nop
  40130d:	90                   	nop
  40130e:	90                   	nop
  40130f:	90                   	nop
  401310:	90                   	nop
  401311:	90                   	nop
  401312:	90                   	nop
  401313:	90                   	nop
  401314:	90                   	nop
  401315:	90                   	nop
  401316:	90                   	nop
  401317:	90                   	nop
  401318:	90                   	nop
  401319:	90                   	nop
  40131a:	90                   	nop
  40131b:	90                   	nop
  40131c:	90                   	nop
  40131d:	90                   	nop
  40131e:	90                   	nop
  40131f:	90                   	nop
  401320:	90                   	nop
  401321:	90                   	nop
  401322:	90                   	nop
  401323:	90                   	nop
  401324:	90                   	nop
  401325:	90                   	nop
  401326:	90                   	nop
  401327:	90                   	nop
  401328:	90                   	nop
  401329:	90                   	nop
  40132a:	90                   	nop
  40132b:	90                   	nop
  40132c:	90                   	nop
  40132d:	90                   	nop
  40132e:	90                   	nop
  40132f:	90                   	nop
  401330:	90                   	nop
  401331:	90                   	nop
  401332:	90                   	nop
  401333:	90                   	nop
  401334:	90                   	nop
  401335:	90                   	nop
  401336:	90                   	nop
  401337:	90                   	nop
  401338:	90                   	nop
  401339:	90                   	nop
  40133a:	90                   	nop
  40133b:	90                   	nop
  40133c:	90                   	nop
  40133d:	90                   	nop
  40133e:	90                   	nop
  40133f:	90                   	nop
  401340:	90                   	nop
  401341:	90                   	nop
  401342:	90                   	nop
  401343:	90                   	nop
  401344:	90                   	nop
  401345:	90                   	nop
  401346:	90                   	nop
  401347:	90                   	nop
  401348:	90                   	nop
  401349:	90                   	nop
  40134a:	90                   	nop
  40134b:	90                   	nop
  40134c:	90                   	nop
  40134d:	90                   	nop
  40134e:	90                   	nop
  40134f:	90                   	nop
  401350:	90                   	nop
  401351:	90                   	nop
  401352:	90                   	nop
  401353:	90                   	nop
  401354:	90                   	nop
  401355:	90                   	nop
  401356:	90                   	nop
  401357:	90                   	nop
  401358:	90                   	nop
  401359:	90                   	nop
  40135a:	90                   	nop
  40135b:	90                   	nop
  40135c:	90                   	nop
  40135d:	90                   	nop
  40135e:	90                   	nop
  40135f:	90                   	nop
  401360:	90                   	nop
  401361:	90                   	nop
  401362:	90                   	nop
  401363:	90                   	nop
  401364:	90                   	nop
  401365:	90                   	nop
  401366:	90                   	nop
  401367:	90                   	nop
  401368:	90                   	nop
  401369:	90                   	nop
  40136a:	90                   	nop
  40136b:	90                   	nop
  40136c:	90                   	nop
  40136d:	90                   	nop
  40136e:	90                   	nop
  40136f:	90                   	nop
  401370:	90                   	nop
  401371:	90                   	nop
  401372:	90                   	nop
  401373:	90                   	nop
  401374:	90                   	nop
  401375:	90                   	nop
  401376:	90                   	nop
  401377:	90                   	nop
  401378:	90                   	nop
  401379:	90                   	nop
  40137a:	90                   	nop
  40137b:	90                   	nop
  40137c:	90                   	nop
  40137d:	90                   	nop
  40137e:	90                   	nop
  40137f:	90                   	nop
  401380:	90                   	nop
  401381:	90                   	nop
  401382:	90                   	nop
  401383:	90                   	nop
  401384:	90                   	nop
  401385:	90                   	nop
  401386:	90                   	nop
  401387:	90                   	nop
  401388:	90                   	nop
  401389:	90                   	nop
  40138a:	90                   	nop
  40138b:	90                   	nop
  40138c:	90                   	nop
  40138d:	90                   	nop
  40138e:	90                   	nop
  40138f:	90                   	nop
  401390:	90                   	nop
  401391:	90                   	nop
  401392:	90                   	nop
  401393:	90                   	nop
  401394:	90                   	nop
  401395:	90                   	nop
  401396:	90                   	nop
  401397:	90                   	nop
  401398:	90                   	nop
  401399:	90                   	nop
  40139a:	90                   	nop
  40139b:	90                   	nop
  40139c:	90                   	nop
  40139d:	90                   	nop
  40139e:	90                   	nop
  40139f:	90                   	nop
  4013a0:	90                   	nop
  4013a1:	90                   	nop
  4013a2:	90                   	nop
  4013a3:	90                   	nop
  4013a4:	90                   	nop
  4013a5:	90                   	nop
  4013a6:	90                   	nop
  4013a7:	90                   	nop
  4013a8:	90                   	nop
  4013a9:	90                   	nop
  4013aa:	90                   	nop
  4013ab:	90                   	nop
  4013ac:	90                   	nop
  4013ad:	90                   	nop
  4013ae:	90                   	nop
  4013af:	90                   	nop
  4013b0:	90                   	nop
  4013b1:	90                   	nop
  4013b2:	90                   	nop
  4013b3:	90                   	nop
  4013b4:	90                   	nop
  4013b5:	90                   	nop
  4013b6:	90                   	nop
  4013b7:	90                   	nop
  4013b8:	90                   	nop
  4013b9:	90                   	nop
  4013ba:	90                   	nop
  4013bb:	90                   	nop
  4013bc:	90                   	nop
  4013bd:	90                   	nop
  4013be:	90                   	nop
  4013bf:	90                   	nop
  4013c0:	90                   	nop
  4013c1:	90                   	nop
  4013c2:	90                   	nop
  4013c3:	90                   	nop
  4013c4:	90                   	nop
  4013c5:	90                   	nop
  4013c6:	90                   	nop
  4013c7:	90                   	nop
  4013c8:	90                   	nop
  4013c9:	90                   	nop
  4013ca:	90                   	nop
  4013cb:	90                   	nop
  4013cc:	90                   	nop
  4013cd:	90                   	nop
  4013ce:	90                   	nop
  4013cf:	90                   	nop
  4013d0:	90                   	nop
  4013d1:	90                   	nop
  4013d2:	90                   	nop
  4013d3:	90                   	nop
  4013d4:	90                   	nop
  4013d5:	90                   	nop
  4013d6:	90                   	nop
  4013d7:	90                   	nop
  4013d8:	90                   	nop
  4013d9:	90                   	nop
  4013da:	90                   	nop
  4013db:	90                   	nop
  4013dc:	90                   	nop
  4013dd:	90                   	nop
  4013de:	90                   	nop
  4013df:	90                   	nop
  4013e0:	90                   	nop
  4013e1:	90                   	nop
  4013e2:	90                   	nop
  4013e3:	90                   	nop
  4013e4:	90                   	nop
  4013e5:	90                   	nop
  4013e6:	90                   	nop
  4013e7:	90                   	nop
  4013e8:	90                   	nop
  4013e9:	b8 3c 00 00 00       	mov    eax,0x3c
  4013ee:	0f 05                	syscall 
